; Function Attrs: mustprogress uwtable
define dso_local void @_ZN12Sample_Debug11handleClickEPKfS1_b(ptr nocapture noundef nonnull readonly align 8 dereferenceable(276) %0, ptr noundef %1, ptr noundef %2, i1 noundef zeroext %3) unnamed_addr #0 align 2 {
  %5 = getelementptr inbounds i8, ptr %0, i64 104
  %6 = load ptr, ptr %5, align 8
  %.not = icmp eq ptr %6, null
  br i1 %.not, label %11, label %7

7:                                                ; preds = %4
  %8 = load ptr, ptr %6, align 8
  %9 = getelementptr inbounds i8, ptr %8, i64 48
  %10 = load ptr, ptr %9, align 8
  tail call void %10(ptr noundef nonnull align 8 dereferenceable(8) %6, ptr noundef %1, ptr noundef %2, i1 noundef zeroext %3)
  br label %11

11:                                               ; preds = %7, %4
  ret void
}